target datalayout = "e-m:e-p270:32:32-p271:32:32-p272:64:64-i64:64-i128:128-f80:128-n8:16:32:64-S128"
target triple = "x86_64-pc-linux-gnu"

%struct._packet_info = type { ptr, ptr, i32, i32, %struct.nstime_t, %struct.nstime_t, %struct.nstime_t, i8, ptr, ptr, ptr, ptr, %struct._address, %struct._address, %struct._address, %struct._address, %struct._address, %struct._address, i32, ptr, i8, [3 x i8], %struct.anon, i32, i32, i32, i32, ptr, i8, ptr, ptr, i16, i16, i32, i32, i16, i32, i32, ptr, ptr, ptr, i8, i8, i16, i16, i16, i32, i16, i16, ptr, ptr, ptr, ptr, ptr, i32, i32 }
%struct.nstime_t = type { i64, i32 }
%struct._address = type { i32, i32, ptr, ptr }
%struct.anon = type { i8, [3 x i8] }
%struct.dte_dce_phdr = type { i8 }

; Function Attrs: null_pointer_is_valid sspstrong uwtable
define internal i32 @dissect_x25_dir(ptr noundef %0, ptr noundef %1, ptr noundef %2, ptr noundef %3) #0 {
  %5 = alloca ptr, align 8
  %6 = alloca ptr, align 8
  %7 = alloca ptr, align 8
  %8 = alloca ptr, align 8
  store ptr %0, ptr %5, align 8
  store ptr %1, ptr %6, align 8
  store ptr %2, ptr %7, align 8
  store ptr %3, ptr %8, align 8
  %9 = load ptr, ptr %5, align 8
  %10 = load ptr, ptr %6, align 8
  %11 = load ptr, ptr %7, align 8
  %12 = load ptr, ptr %6, align 8
  %13 = getelementptr inbounds nuw %struct._packet_info, ptr %12, i32 0, i32 9
  %14 = load ptr, ptr %13, align 8
  %15 = getelementptr inbounds nuw %struct.dte_dce_phdr, ptr %14, i32 0, i32 0
  %16 = load i8, ptr %15, align 8
  %17 = zext i8 %16 to i32
  %18 = and i32 %17, 128
  %19 = icmp ne i32 %18, 0
  %20 = select i1 %19, i32 0, i32 1
  %21 = load ptr, ptr %6, align 8
  %22 = getelementptr inbounds nuw %struct._packet_info, ptr %21, i32 0, i32 9
  %23 = load ptr, ptr %22, align 8
  %24 = getelementptr inbounds nuw %struct.dte_dce_phdr, ptr %23, i32 0, i32 0
  %25 = load i8, ptr %24, align 8
  %26 = zext i8 %25 to i32
  %27 = and i32 %26, 128
  %28 = icmp ne i32 %27, 0
  call void @dissect_x25_common(ptr noundef %9, ptr noundef %10, ptr noundef %11, i32 noundef %20, i1 noundef zeroext %28)
  %29 = load ptr, ptr %5, align 8
  %30 = call i32 @tvb_captured_length(ptr noundef %29)
  ret i32 %30
}