; Function Attrs: null_pointer_is_valid sspstrong uwtable
define internal i32 @dissect_x25_dir(ptr noundef %0, ptr noundef %1, ptr noundef %2, ptr readnone captures(none) %3) #0 {
  %5 = getelementptr inbounds nuw i8, ptr %1, i64 88
  %6 = load ptr, ptr %5, align 8
  %7 = load i8, ptr %6, align 8
  %8 = icmp slt i8 %7, 0
  %not. = xor i1 %8, true
  %9 = zext i1 %not. to i32
  tail call fastcc void @dissect_x25_common(ptr noundef %0, ptr noundef %1, ptr noundef %2, i32 noundef %9, i1 noundef zeroext %8)
  %10 = tail call i32 @tvb_captured_length(ptr noundef %0)
  ret i32 %10
}